target datalayout = "e-m:e-p270:32:32-p271:32:32-p272:64:64-i64:64-i128:128-f80:128-n8:16:32:64-S128"
target triple = "x86_64-pc-linux-gnu"

%struct.Elf64_Shdr = type { i32, i32, i64, i64, i64, i64, i32, i32, i64, i64 }

; Function Attrs: mustprogress noinline uwtable
define internal noundef zeroext i1 @_ZN6google24glog_internal_namespace_L22GetSectionHeaderByTypeEitmjP10Elf64_Shdr(i32 noundef %0, i16 noundef zeroext %1, i64 noundef %2, i32 noundef %3, ptr noundef %4) #5 {
  %6 = alloca i1, align 1
  %7 = alloca i32, align 4
  %8 = alloca i16, align 2
  %9 = alloca i64, align 8
  %10 = alloca i32, align 4
  %11 = alloca ptr, align 8
  %12 = alloca [16 x %struct.Elf64_Shdr], align 16
  %13 = alloca i64, align 8
  %14 = alloca i32, align 4
  %15 = alloca i64, align 8
  %16 = alloca i64, align 8
  %17 = alloca i64, align 8
  %18 = alloca i64, align 8
  %19 = alloca i64, align 8
  store i32 %0, ptr %7, align 4, !tbaa !7
  store i16 %1, ptr %8, align 2, !tbaa !76
  store i64 %2, ptr %9, align 8, !tbaa !11
  store i32 %3, ptr %10, align 4, !tbaa !7
  store ptr %4, ptr %11, align 8, !tbaa !3
  call void @llvm.lifetime.start.p0(i64 1024, ptr %12) #14
  call void @llvm.lifetime.start.p0(i64 8, ptr %13) #14
  store i64 0, ptr %13, align 8, !tbaa !11
  br label %20

20:                                               ; preds = %95, %5
  %21 = load i64, ptr %13, align 8, !tbaa !11
  %22 = load i16, ptr %8, align 2, !tbaa !76
  %23 = zext i16 %22 to i64
  %24 = icmp ult i64 %21, %23
  br i1 %24, label %26, label %25

25:                                               ; preds = %20
  store i32 2, ptr %14, align 4
  br label %96

26:                                               ; preds = %20
  call void @llvm.lifetime.start.p0(i64 8, ptr %15) #14
  %27 = load i16, ptr %8, align 2, !tbaa !76
  %28 = zext i16 %27 to i64
  %29 = load i64, ptr %13, align 8, !tbaa !11
  %30 = sub i64 %28, %29
  %31 = mul i64 %30, 64
  store i64 %31, ptr %15, align 8, !tbaa !11
  call void @llvm.lifetime.start.p0(i64 8, ptr %16) #14
  %32 = load i64, ptr %15, align 8, !tbaa !11
  %33 = icmp ugt i64 1024, %32
  br i1 %33, label %34, label %36

34:                                               ; preds = %26
  %35 = load i64, ptr %15, align 8, !tbaa !11
  br label %37

36:                                               ; preds = %26
  br label %37

37:                                               ; preds = %36, %34
  %38 = phi i64 [ %35, %34 ], [ 1024, %36 ]
  store i64 %38, ptr %16, align 8, !tbaa !11
  call void @llvm.lifetime.start.p0(i64 8, ptr %17) #14
  %39 = load i32, ptr %7, align 4, !tbaa !7
  %40 = getelementptr inbounds [16 x %struct.Elf64_Shdr], ptr %12, i64 0, i64 0
  %41 = load i64, ptr %16, align 8, !tbaa !11
  %42 = load i64, ptr %9, align 8, !tbaa !11
  %43 = load i64, ptr %13, align 8, !tbaa !11
  %44 = mul i64 %43, 64
  %45 = add i64 %42, %44
  %46 = call noundef i64 @_ZN6google24glog_internal_namespace_L14ReadFromOffsetEiPvmm(i32 noundef %39, ptr noundef %40, i64 noundef %41, i64 noundef %45)
  store i64 %46, ptr %17, align 8, !tbaa !11
  %47 = load i64, ptr %17, align 8, !tbaa !11
  %48 = icmp eq i64 %47, -1
  br i1 %48, label %49, label %50

49:                                               ; preds = %37
  store i1 false, ptr %6, align 1
  store i32 1, ptr %14, align 4
  br label %93

50:                                               ; preds = %37
  %51 = load i64, ptr %17, align 8, !tbaa !11
  %52 = urem i64 %51, 64
  %53 = icmp eq i64 %52, 0
  br i1 %53, label %54, label %55

54:                                               ; preds = %50
  br label %57

55:                                               ; preds = %50
  call void @abort() #16
  unreachable

56:                                               ; No predecessors!
  br label %57

57:                                               ; preds = %56, %54
  call void @llvm.lifetime.start.p0(i64 8, ptr %18) #14
  %58 = load i64, ptr %17, align 8, !tbaa !11
  %59 = udiv i64 %58, 64
  store i64 %59, ptr %18, align 8, !tbaa !11
  %60 = load i64, ptr %18, align 8, !tbaa !11
  %61 = icmp ule i64 %60, 16
  br i1 %61, label %62, label %63

62:                                               ; preds = %57
  br label %65

63:                                               ; preds = %57
  call void @abort() #16
  unreachable

64:                                               ; No predecessors!
  br label %65

65:                                               ; preds = %64, %62
  call void @llvm.lifetime.start.p0(i64 8, ptr %19) #14
  store i64 0, ptr %19, align 8, !tbaa !11
  br label %66

66:                                               ; preds = %83, %65
  %67 = load i64, ptr %19, align 8, !tbaa !11
  %68 = load i64, ptr %18, align 8, !tbaa !11
  %69 = icmp ult i64 %67, %68
  br i1 %69, label %71, label %70

70:                                               ; preds = %66
  store i32 4, ptr %14, align 4
  br label %86

71:                                               ; preds = %66
  %72 = load i64, ptr %19, align 8, !tbaa !11
  %73 = getelementptr inbounds nuw [16 x %struct.Elf64_Shdr], ptr %12, i64 0, i64 %72
  %74 = getelementptr inbounds nuw %struct.Elf64_Shdr, ptr %73, i32 0, i32 1
  %75 = load i32, ptr %74, align 4, !tbaa !77
  %76 = load i32, ptr %10, align 4, !tbaa !7
  %77 = icmp eq i32 %75, %76
  br i1 %77, label %78, label %82

78:                                               ; preds = %71
  %79 = load i64, ptr %19, align 8, !tbaa !11
  %80 = getelementptr inbounds nuw [16 x %struct.Elf64_Shdr], ptr %12, i64 0, i64 %79
  %81 = load ptr, ptr %11, align 8, !tbaa !3
  call void @llvm.memcpy.p0.p0.i64(ptr align 8 %81, ptr align 16 %80, i64 64, i1 false), !tbaa.struct !78
  store i1 true, ptr %6, align 1
  store i32 1, ptr %14, align 4
  br label %86

82:                                               ; preds = %71
  br label %83

83:                                               ; preds = %82
  %84 = load i64, ptr %19, align 8, !tbaa !11
  %85 = add i64 %84, 1
  store i64 %85, ptr %19, align 8, !tbaa !11
  br label %66, !llvm.loop !79

86:                                               ; preds = %78, %70
  call void @llvm.lifetime.end.p0(i64 8, ptr %19) #14
  %87 = load i32, ptr %14, align 4
  switch i32 %87, label %92 [
    i32 4, label %88
  ]

88:                                               ; preds = %86
  %89 = load i64, ptr %18, align 8, !tbaa !11
  %90 = load i64, ptr %13, align 8, !tbaa !11
  %91 = add i64 %90, %89
  store i64 %91, ptr %13, align 8, !tbaa !11
  store i32 0, ptr %14, align 4
  br label %92

92:                                               ; preds = %88, %86
  call void @llvm.lifetime.end.p0(i64 8, ptr %18) #14
  br label %93

93:                                               ; preds = %92, %49
  call void @llvm.lifetime.end.p0(i64 8, ptr %17) #14
  call void @llvm.lifetime.end.p0(i64 8, ptr %16) #14
  call void @llvm.lifetime.end.p0(i64 8, ptr %15) #14
  %94 = load i32, ptr %14, align 4
  switch i32 %94, label %96 [
    i32 0, label %95
  ]

95:                                               ; preds = %93
  br label %20, !llvm.loop !80

96:                                               ; preds = %93, %25
  call void @llvm.lifetime.end.p0(i64 8, ptr %13) #14
  %97 = load i32, ptr %14, align 4
  switch i32 %97, label %99 [
    i32 2, label %98
  ]

98:                                               ; preds = %96
  store i1 false, ptr %6, align 1
  store i32 1, ptr %14, align 4
  br label %99

99:                                               ; preds = %98, %96
  call void @llvm.lifetime.end.p0(i64 1024, ptr %12) #14
  %100 = load i1, ptr %6, align 1
  ret i1 %100
}