; Function Attrs: mustprogress nofree noinline uwtable
define internal fastcc noundef zeroext i1 @_ZN6google24glog_internal_namespace_L22GetSectionHeaderByTypeEitmjP10Elf64_Shdr(i32 noundef %0, i16 noundef zeroext %1, i64 noundef %2, i32 noundef range(i32 2, 12) %3, ptr noundef nonnull writeonly captures(none) %4) unnamed_addr #17 {
  %6 = alloca [16 x %struct.Elf64_Shdr], align 16
  call void @llvm.lifetime.start.p0(i64 1024, ptr nonnull %6) #20
  %7 = zext i16 %1 to i64
  %.not3953.not = icmp eq i16 %1, 0
  br i1 %.not3953.not, label %.thread, label %.lr.ph57

.lr.ph57:                                         ; preds = %5, %._crit_edge
  %.02954 = phi i64 [ %29, %._crit_edge ], [ 0, %5 ]
  %8 = sub nuw nsw i64 %7, %.02954
  %9 = shl nuw nsw i64 %8, 6
  %10 = tail call i64 @llvm.umin.i64(i64 %9, i64 1024)
  %11 = shl nuw nsw i64 %.02954, 6
  %12 = add i64 %11, %2
  %13 = call fastcc noundef i64 @_ZN6google24glog_internal_namespace_L14ReadFromOffsetEiPvmm(i32 noundef %0, ptr noundef nonnull %6, i64 noundef %10, i64 noundef %12)
  %14 = icmp eq i64 %13, -1
  br i1 %14, label %.thread, label %15

15:                                               ; preds = %.lr.ph57
  %16 = and i64 %13, 63
  %17 = icmp eq i64 %16, 0
  br i1 %17, label %19, label %18

18:                                               ; preds = %15
  tail call void @abort() #21
  unreachable

19:                                               ; preds = %15
  %20 = lshr exact i64 %13, 6
  %21 = icmp ult i64 %13, 1088
  br i1 %21, label %.preheader, label %22

.preheader:                                       ; preds = %19
  %.not.not51.not = icmp eq i64 %13, 0
  br i1 %.not.not51.not, label %._crit_edge, label %.lr.ph

22:                                               ; preds = %19
  tail call void @abort() #21
  unreachable

23:                                               ; preds = %.lr.ph
  %24 = add nuw nsw i64 %.052, 1
  %exitcond.not = icmp eq i64 %24, %20
  br i1 %exitcond.not, label %._crit_edge, label %.lr.ph, !llvm.loop !42

.lr.ph:                                           ; preds = %.preheader, %23
  %.052 = phi i64 [ %24, %23 ], [ 0, %.preheader ]
  %25 = getelementptr inbounds nuw [16 x %struct.Elf64_Shdr], ptr %6, i64 0, i64 %.052
  %26 = getelementptr inbounds nuw i8, ptr %25, i64 4
  %27 = load i32, ptr %26, align 4, !tbaa !43
  %28 = icmp eq i32 %27, %3
  br i1 %28, label %.thread44, label %23

.thread44:                                        ; preds = %.lr.ph
  call void @llvm.memcpy.p0.p0.i64(ptr noundef nonnull align 8 dereferenceable(64) %4, ptr noundef nonnull align 16 dereferenceable(64) %25, i64 64, i1 false), !tbaa.struct !44
  br label %.thread

._crit_edge:                                      ; preds = %23, %.preheader
  %29 = add nuw nsw i64 %20, %.02954
  %.not39 = icmp samesign ult i64 %29, %7
  br i1 %.not39, label %.lr.ph57, label %.thread

.thread:                                          ; preds = %._crit_edge, %.lr.ph57, %5, %.thread44
  %.not3950 = phi i1 [ true, %.thread44 ], [ false, %5 ], [ %14, %.lr.ph57 ], [ %14, %._crit_edge ]
  %.1 = phi i1 [ true, %.thread44 ], [ undef, %5 ], [ false, %.lr.ph57 ], [ false, %._crit_edge ]
  %spec.select40 = and i1 %.not3950, %.1
  call void @llvm.lifetime.end.p0(i64 1024, ptr nonnull %6) #20
  ret i1 %spec.select40
}